target datalayout = "e-m:e-p270:32:32-p271:32:32-p272:64:64-i64:64-i128:128-f80:128-n8:16:32:64-S128"
target triple = "x86_64-pc-linux-gnu"

@.str.66 = private unnamed_addr constant [5 x i8] c"else\00", align 1
@.str.72 = private unnamed_addr constant [3 x i8] c"if\00", align 1
@.str.151 = private unnamed_addr constant [7 x i8] c"import\00", align 1
@.str.391 = private unnamed_addr constant [12 x i8] c"not_keyword\00", align 1
@.str.392 = private unnamed_addr constant [6 x i8] c"ifdef\00", align 1
@.str.393 = private unnamed_addr constant [7 x i8] c"ifndef\00", align 1
@.str.394 = private unnamed_addr constant [5 x i8] c"elif\00", align 1
@.str.395 = private unnamed_addr constant [8 x i8] c"elifdef\00", align 1
@.str.396 = private unnamed_addr constant [9 x i8] c"elifndef\00", align 1
@.str.397 = private unnamed_addr constant [6 x i8] c"endif\00", align 1
@.str.398 = private unnamed_addr constant [8 x i8] c"defined\00", align 1
@.str.399 = private unnamed_addr constant [8 x i8] c"include\00", align 1
@.str.400 = private unnamed_addr constant [17 x i8] c"__include_macros\00", align 1
@.str.401 = private unnamed_addr constant [7 x i8] c"define\00", align 1
@.str.402 = private unnamed_addr constant [6 x i8] c"undef\00", align 1
@.str.403 = private unnamed_addr constant [5 x i8] c"line\00", align 1
@.str.404 = private unnamed_addr constant [6 x i8] c"error\00", align 1
@.str.405 = private unnamed_addr constant [7 x i8] c"pragma\00", align 1
@.str.406 = private unnamed_addr constant [6 x i8] c"embed\00", align 1
@.str.407 = private unnamed_addr constant [13 x i8] c"include_next\00", align 1
@.str.408 = private unnamed_addr constant [8 x i8] c"warning\00", align 1
@.str.409 = private unnamed_addr constant [6 x i8] c"ident\00", align 1
@.str.410 = private unnamed_addr constant [5 x i8] c"sccs\00", align 1
@.str.411 = private unnamed_addr constant [7 x i8] c"assert\00", align 1
@.str.412 = private unnamed_addr constant [9 x i8] c"unassert\00", align 1
@.str.413 = private unnamed_addr constant [15 x i8] c"__public_macro\00", align 1
@.str.414 = private unnamed_addr constant [16 x i8] c"__private_macro\00", align 1

; Function Attrs: mustprogress nounwind willreturn memory(none) uwtable
define dso_local noundef ptr @_ZN5clang3tok20getPPKeywordSpellingENS0_13PPKeywordKindE(i32 noundef %0) #0 {
  %2 = alloca ptr, align 8
  %3 = alloca i32, align 4
  store i32 %0, ptr %3, align 4
  %4 = load i32, ptr %3, align 4
  switch i32 %4, label %32 [
    i32 0, label %5
    i32 1, label %6
    i32 2, label %7
    i32 3, label %8
    i32 4, label %9
    i32 5, label %10
    i32 6, label %11
    i32 7, label %12
    i32 8, label %13
    i32 9, label %14
    i32 10, label %15
    i32 11, label %16
    i32 12, label %17
    i32 13, label %18
    i32 14, label %19
    i32 15, label %20
    i32 16, label %21
    i32 17, label %22
    i32 18, label %23
    i32 19, label %24
    i32 20, label %25
    i32 21, label %26
    i32 22, label %27
    i32 23, label %28
    i32 24, label %29
    i32 25, label %30
    i32 26, label %31
  ]

5:                                                ; preds = %1
  store ptr @.str.391, ptr %2, align 8
  br label %34

6:                                                ; preds = %1
  store ptr @.str.72, ptr %2, align 8
  br label %34

7:                                                ; preds = %1
  store ptr @.str.392, ptr %2, align 8
  br label %34

8:                                                ; preds = %1
  store ptr @.str.393, ptr %2, align 8
  br label %34

9:                                                ; preds = %1
  store ptr @.str.394, ptr %2, align 8
  br label %34

10:                                               ; preds = %1
  store ptr @.str.395, ptr %2, align 8
  br label %34

11:                                               ; preds = %1
  store ptr @.str.396, ptr %2, align 8
  br label %34

12:                                               ; preds = %1
  store ptr @.str.66, ptr %2, align 8
  br label %34

13:                                               ; preds = %1
  store ptr @.str.397, ptr %2, align 8
  br label %34

14:                                               ; preds = %1
  store ptr @.str.398, ptr %2, align 8
  br label %34

15:                                               ; preds = %1
  store ptr @.str.399, ptr %2, align 8
  br label %34

16:                                               ; preds = %1
  store ptr @.str.400, ptr %2, align 8
  br label %34

17:                                               ; preds = %1
  store ptr @.str.401, ptr %2, align 8
  br label %34

18:                                               ; preds = %1
  store ptr @.str.402, ptr %2, align 8
  br label %34

19:                                               ; preds = %1
  store ptr @.str.403, ptr %2, align 8
  br label %34

20:                                               ; preds = %1
  store ptr @.str.404, ptr %2, align 8
  br label %34

21:                                               ; preds = %1
  store ptr @.str.405, ptr %2, align 8
  br label %34

22:                                               ; preds = %1
  store ptr @.str.406, ptr %2, align 8
  br label %34

23:                                               ; preds = %1
  store ptr @.str.151, ptr %2, align 8
  br label %34

24:                                               ; preds = %1
  store ptr @.str.407, ptr %2, align 8
  br label %34

25:                                               ; preds = %1
  store ptr @.str.408, ptr %2, align 8
  br label %34

26:                                               ; preds = %1
  store ptr @.str.409, ptr %2, align 8
  br label %34

27:                                               ; preds = %1
  store ptr @.str.410, ptr %2, align 8
  br label %34

28:                                               ; preds = %1
  store ptr @.str.411, ptr %2, align 8
  br label %34

29:                                               ; preds = %1
  store ptr @.str.412, ptr %2, align 8
  br label %34

30:                                               ; preds = %1
  store ptr @.str.413, ptr %2, align 8
  br label %34

31:                                               ; preds = %1
  store ptr @.str.414, ptr %2, align 8
  br label %34

32:                                               ; preds = %1
  br label %33

33:                                               ; preds = %32
  store ptr null, ptr %2, align 8
  br label %34

34:                                               ; preds = %33, %31, %30, %29, %28, %27, %26, %25, %24, %23, %22, %21, %20, %19, %18, %17, %16, %15, %14, %13, %12, %11, %10, %9, %8, %7, %6, %5
  %35 = load ptr, ptr %2, align 8
  ret ptr %35
}